; ModuleID = '26/714.c'
source_filename = "26/714.c"
target datalayout = "e-m:e-p270:32:32-p271:32:32-p272:64:64-i64:64-f80:128-n8:16:32:64-S128"
target triple = "x86_64-pc-linux-gnu"

@.str = private unnamed_addr constant [3 x i8] c"%c\00", align 1
@.str.1 = private unnamed_addr constant [2 x i8] c" \00", align 1

; Function Attrs: noinline nounwind uwtable
define dso_local i32 @main() #0 {
  %1 = alloca i32, align 4
  %2 = alloca [101 x i8], align 16
  %3 = alloca i8, align 1
  store i32 0, i32* %1, align 4
  %4 = getelementptr inbounds [101 x i8], [101 x i8]* %2, i64 0, i64 0
  %5 = call i32 (i8*, ...) bitcast (i32 (...)* @gets to i32 (i8*, ...)*)(i8* %4)
  store i8 0, i8* %3, align 1
  br label %6

6:                                                ; preds = %44, %0
  %7 = load i8, i8* %3, align 1
  %8 = sext i8 %7 to i64
  %9 = getelementptr inbounds [101 x i8], [101 x i8]* %2, i64 0, i64 0
  %10 = call i64 @strlen(i8* %9) #3
  %11 = icmp ult i64 %8, %10
  br i1 %11, label %12, label %47

12:                                               ; preds = %6
  %13 = load i8, i8* %3, align 1
  %14 = sext i8 %13 to i64
  %15 = getelementptr inbounds [101 x i8], [101 x i8]* %2, i64 0, i64 %14
  %16 = load i8, i8* %15, align 1
  %17 = sext i8 %16 to i32
  %18 = icmp ne i32 %17, 32
  br i1 %18, label %19, label %26

19:                                               ; preds = %12
  %20 = load i8, i8* %3, align 1
  %21 = sext i8 %20 to i64
  %22 = getelementptr inbounds [101 x i8], [101 x i8]* %2, i64 0, i64 %21
  %23 = load i8, i8* %22, align 1
  %24 = sext i8 %23 to i32
  %25 = call i32 (i8*, ...) @printf(i8* getelementptr inbounds ([3 x i8], [3 x i8]* @.str, i64 0, i64 0), i32 %24)
  br label %44

26:                                               ; preds = %12
  %27 = call i32 (i8*, ...) @printf(i8* getelementptr inbounds ([2 x i8], [2 x i8]* @.str.1, i64 0, i64 0))
  br label %28

28:                                               ; preds = %37, %26
  %29 = load i8, i8* %3, align 1
  %30 = sext i8 %29 to i32
  %31 = add nsw i32 %30, 1
  %32 = sext i32 %31 to i64
  %33 = getelementptr inbounds [101 x i8], [101 x i8]* %2, i64 0, i64 %32
  %34 = load i8, i8* %33, align 1
  %35 = sext i8 %34 to i32
  %36 = icmp eq i32 %35, 32
  br i1 %36, label %37, label %42

37:                                               ; preds = %28
  %38 = load i8, i8* %3, align 1
  %39 = sext i8 %38 to i32
  %40 = add nsw i32 %39, 1
  %41 = trunc i32 %40 to i8
  store i8 %41, i8* %3, align 1
  br label %28

42:                                               ; preds = %28
  br label %43

43:                                               ; preds = %42
  br label %44

44:                                               ; preds = %43, %19
  %45 = load i8, i8* %3, align 1
  %46 = add i8 %45, 1
  store i8 %46, i8* %3, align 1
  br label %6

47:                                               ; preds = %6
  ret i32 0
}

declare dso_local i32 @gets(...) #1

; Function Attrs: nounwind readonly
declare dso_local i64 @strlen(i8*) #2

declare dso_local i32 @printf(i8*, ...) #1


!llvm.module.flags = !{!0}
!llvm.ident = !{!1}

!0 = !{i32 1, !"wchar_size", i32 4}
!1 = !{!"clang version 10.0.0-4ubuntu1 "}
